; Function Attrs: mustprogress uwtable
define hidden void @_ZN6Assimp11XFileParser29ParseDataObjectSkinMeshHeaderEPNS_5XFile4MeshE(ptr noundef nonnull align 8 dereferenceable(56) %this, ptr nocapture readnone %0) local_unnamed_addr #0 align 2 personality ptr @__gxx_personality_v0 {
entry:
  %ref.tmp.i = alloca %"class.std::__cxx11::basic_string", align 8
  tail call void @_ZN6Assimp11XFileParser20readHeadOfDataObjectEPNSt7__cxx1112basic_stringIcSt11char_traitsIcESaIcEEE(ptr noundef nonnull align 8 dereferenceable(56) %this, ptr noundef null)
  %call = tail call noundef i32 @_ZN6Assimp11XFileParser7ReadIntEv(ptr noundef nonnull align 8 dereferenceable(56) %this)
  %call2 = tail call noundef i32 @_ZN6Assimp11XFileParser7ReadIntEv(ptr noundef nonnull align 8 dereferenceable(56) %this)
  %call3 = tail call noundef i32 @_ZN6Assimp11XFileParser7ReadIntEv(ptr noundef nonnull align 8 dereferenceable(56) %this)
  call void @llvm.lifetime.start.p0(i64 32, ptr nonnull %ref.tmp.i)
  call void @_ZN6Assimp11XFileParser12GetNextTokenB5cxx11Ev(ptr nonnull sret(%"class.std::__cxx11::basic_string") align 8 %ref.tmp.i, ptr noundef nonnull align 8 dereferenceable(56) %this)
  %call.i.i.i = call noundef i32 @_ZNKSt7__cxx1112basic_stringIcSt11char_traitsIcESaIcEE7compareEPKc(ptr noundef nonnull align 8 dereferenceable(32) %ref.tmp.i, ptr noundef nonnull @.str.20) #21
  %cmp.i.i.not.i = icmp eq i32 %call.i.i.i, 0
  call void @_ZNSt7__cxx1112basic_stringIcSt11char_traitsIcESaIcEED1Ev(ptr noundef nonnull align 8 dereferenceable(32) %ref.tmp.i) #21
  br i1 %cmp.i.i.not.i, label %_ZN6Assimp11XFileParser20CheckForClosingBraceEv.exit, label %if.then.i

if.then.i:                                        ; preds = %entry
  call void @_ZN6Assimp11XFileParser14ThrowExceptionIJRA24_KcEEEvDpOT_(ptr noundef nonnull align 8 dereferenceable(56) %this, ptr noundef nonnull align 1 dereferenceable(24) @.str.71) #23
  unreachable

_ZN6Assimp11XFileParser20CheckForClosingBraceEv.exit: ; preds = %entry
  call void @llvm.lifetime.end.p0(i64 32, ptr nonnull %ref.tmp.i)
  ret void
}